target datalayout = "e-m:e-p270:32:32-p271:32:32-p272:64:64-i64:64-i128:128-f80:128-n8:16:32:64-S128"
target triple = "x86_64-unknown-linux-gnu"

%"class.net::QuicSentPacketManager" = type { %"class.net::QuicSentPacketManagerInterface", %"class.net::QuicUnackedPacketMap", %class.linked_hash_map, i32, i8, ptr, ptr, ptr, ptr, ptr, i64, %"class.net::RttStats", %"class.std::unique_ptr", ptr, %"class.net::GeneralLossAlgorithm", i8, i64, i64, i64, i64, i64, i64, i64, i64, i8, i8, i8, i8, %"class.std::vector", %"class.std::vector", i64, i16, [6 x i8], %"class.net::PacingSender", i8, %"class.net::QuicSustainedBandwidthRecorder" }
%"class.net::QuicSentPacketManagerInterface" = type { ptr }
%"class.net::QuicUnackedPacketMap" = type { i64, i64, %"class.std::deque", i64, i64, i64 }
%"class.std::deque" = type { %"class.std::_Deque_base" }
%"class.std::_Deque_base" = type { %"struct.std::_Deque_base<net::TransmissionInfo, std::allocator<net::TransmissionInfo>>::_Deque_impl" }
%"struct.std::_Deque_base<net::TransmissionInfo, std::allocator<net::TransmissionInfo>>::_Deque_impl" = type { %"struct.std::_Deque_base<net::TransmissionInfo, std::allocator<net::TransmissionInfo>>::_Deque_impl_data" }
%"struct.std::_Deque_base<net::TransmissionInfo, std::allocator<net::TransmissionInfo>>::_Deque_impl_data" = type { ptr, i64, %"struct.std::_Deque_iterator", %"struct.std::_Deque_iterator" }
%"struct.std::_Deque_iterator" = type { ptr, ptr, ptr, ptr }
%class.linked_hash_map = type { %"class.std::unordered_map", %"class.std::__cxx11::list" }
%"class.std::unordered_map" = type { %"class.std::_Hashtable" }
%"class.std::_Hashtable" = type { ptr, i64, %"struct.std::__detail::_Hash_node_base", i64, %"struct.std::__detail::_Prime_rehash_policy", ptr }
%"struct.std::__detail::_Hash_node_base" = type { ptr }
%"struct.std::__detail::_Prime_rehash_policy" = type { float, i64 }
%"class.std::__cxx11::list" = type { %"class.std::__cxx11::_List_base" }
%"class.std::__cxx11::_List_base" = type { %"struct.std::__cxx11::_List_base<std::pair<unsigned long, net::TransmissionType>, std::allocator<std::pair<unsigned long, net::TransmissionType>>>::_List_impl" }
%"struct.std::__cxx11::_List_base<std::pair<unsigned long, net::TransmissionType>, std::allocator<std::pair<unsigned long, net::TransmissionType>>>::_List_impl" = type { %"struct.std::__detail::_List_node_header" }
%"struct.std::__detail::_List_node_header" = type { %"struct.std::__detail::_List_node_base", i64 }
%"struct.std::__detail::_List_node_base" = type { ptr, ptr }
%"class.net::RttStats" = type { %"class.net::QuicTime::Delta", %"class.net::QuicTime::Delta", %"class.net::QuicTime::Delta", %"class.net::QuicTime::Delta", %"class.net::QuicTime::Delta", i64, %"class.net::QuicTime::Delta", %"class.net::QuicTime", i32, %"class.net::WindowedFilter" }
%"class.net::QuicTime::Delta" = type { %"class.base::TimeDelta", i64 }
%"class.base::TimeDelta" = type { i64 }
%"class.net::QuicTime" = type { i64 }
%"class.net::WindowedFilter" = type { %"class.net::QuicTime::Delta", %"class.net::QuicTime::Delta", [3 x %"struct.net::WindowedFilter<net::QuicTime::Delta, net::MinFilter<net::QuicTime::Delta>, net::QuicTime, net::QuicTime::Delta>::Sample"] }
%"struct.net::WindowedFilter<net::QuicTime::Delta, net::MinFilter<net::QuicTime::Delta>, net::QuicTime, net::QuicTime::Delta>::Sample" = type { %"class.net::QuicTime::Delta", %"class.net::QuicTime" }
%"class.std::unique_ptr" = type { %"struct.std::__uniq_ptr_data" }
%"struct.std::__uniq_ptr_data" = type { %"class.std::__uniq_ptr_impl" }
%"class.std::__uniq_ptr_impl" = type { %"class.std::tuple" }
%"class.std::tuple" = type { %"struct.std::_Tuple_impl" }
%"struct.std::_Tuple_impl" = type { %"struct.std::_Head_base.9" }
%"struct.std::_Head_base.9" = type { ptr }
%"class.net::GeneralLossAlgorithm" = type { %"class.net::LossDetectionInterface", %"class.net::QuicTime", i64, i32, i32 }
%"class.net::LossDetectionInterface" = type { ptr }
%"class.std::vector" = type { %"struct.std::_Vector_base" }
%"struct.std::_Vector_base" = type { %"struct.std::_Vector_base<std::pair<unsigned long, unsigned short>, std::allocator<std::pair<unsigned long, unsigned short>>>::_Vector_impl" }
%"struct.std::_Vector_base<std::pair<unsigned long, unsigned short>, std::allocator<std::pair<unsigned long, unsigned short>>>::_Vector_impl" = type { %"struct.std::_Vector_base<std::pair<unsigned long, unsigned short>, std::allocator<std::pair<unsigned long, unsigned short>>>::_Vector_impl_data" }
%"struct.std::_Vector_base<std::pair<unsigned long, unsigned short>, std::allocator<std::pair<unsigned long, unsigned short>>>::_Vector_impl_data" = type { ptr, ptr, ptr }
%"class.net::PacingSender" = type <{ ptr, %"class.net::QuicBandwidth", i32, [4 x i8], %"class.net::QuicTime", %"class.net::QuicTime", i8, [7 x i8] }>
%"class.net::QuicBandwidth" = type { i64 }
%"class.net::QuicSustainedBandwidthRecorder" = type { i8, i8, i8, %"class.net::QuicBandwidth", %"class.net::QuicBandwidth", i64, %"class.net::QuicTime" }
%"struct.net::TransmissionInfo" = type { %"class.std::vector.34", i8, i8, i16, %"class.net::QuicTime", i8, i8, i8, i8, i16, i64, %"class.std::__cxx11::list.39" }
%"class.std::vector.34" = type { %"struct.std::_Vector_base.35" }
%"struct.std::_Vector_base.35" = type { %"struct.std::_Vector_base<net::QuicFrame, std::allocator<net::QuicFrame>>::_Vector_impl" }
%"struct.std::_Vector_base<net::QuicFrame, std::allocator<net::QuicFrame>>::_Vector_impl" = type { %"struct.std::_Vector_base<net::QuicFrame, std::allocator<net::QuicFrame>>::_Vector_impl_data" }
%"struct.std::_Vector_base<net::QuicFrame, std::allocator<net::QuicFrame>>::_Vector_impl_data" = type { ptr, ptr, ptr }
%"class.std::__cxx11::list.39" = type { %"class.std::__cxx11::_List_base.40" }
%"class.std::__cxx11::_List_base.40" = type { %"struct.std::__cxx11::_List_base<net::AckListenerWrapper, std::allocator<net::AckListenerWrapper>>::_List_impl" }
%"struct.std::__cxx11::_List_base<net::AckListenerWrapper, std::allocator<net::AckListenerWrapper>>::_List_impl" = type { %"struct.std::__detail::_List_node_header" }

; Function Attrs: mustprogress uwtable
define dso_local noundef i64 @_ZNK3net21QuicSentPacketManager23GetNewestRetransmissionEmRKNS_16TransmissionInfoE(ptr noundef nonnull align 8 dereferenceable(776) %this, i64 noundef %packet_number, ptr noundef nonnull align 8 dereferenceable(80) %transmission_info) #0 align 2 {
entry:
  %this.addr = alloca ptr, align 8
  %packet_number.addr = alloca i64, align 8
  %transmission_info.addr = alloca ptr, align 8
  %retransmission = alloca i64, align 8
  store ptr %this, ptr %this.addr, align 8
  store i64 %packet_number, ptr %packet_number.addr, align 8
  store ptr %transmission_info, ptr %transmission_info.addr, align 8
  %this1 = load ptr, ptr %this.addr, align 8
  %0 = load ptr, ptr %transmission_info.addr, align 8
  %retransmission2 = getelementptr inbounds %"struct.net::TransmissionInfo", ptr %0, i32 0, i32 10
  %1 = load i64, ptr %retransmission2, align 8
  store i64 %1, ptr %retransmission, align 8
  br label %while.cond

while.cond:                                       ; preds = %while.body, %entry
  %2 = load i64, ptr %retransmission, align 8
  %cmp = icmp ne i64 %2, 0
  br i1 %cmp, label %while.body, label %while.end

while.body:                                       ; preds = %while.cond
  %3 = load i64, ptr %retransmission, align 8
  store i64 %3, ptr %packet_number.addr, align 8
  %unacked_packets_ = getelementptr inbounds %"class.net::QuicSentPacketManager", ptr %this1, i32 0, i32 1
  %4 = load i64, ptr %retransmission, align 8
  %call = call noundef nonnull align 8 dereferenceable(80) ptr @_ZNK3net20QuicUnackedPacketMap19GetTransmissionInfoEm(ptr noundef nonnull align 8 dereferenceable(120) %unacked_packets_, i64 noundef %4)
  %retransmission3 = getelementptr inbounds %"struct.net::TransmissionInfo", ptr %call, i32 0, i32 10
  %5 = load i64, ptr %retransmission3, align 8
  store i64 %5, ptr %retransmission, align 8
  br label %while.cond, !llvm.loop !11

while.end:                                        ; preds = %while.cond
  %6 = load i64, ptr %packet_number.addr, align 8
  ret i64 %6
}

; Function Attrs: mustprogress uwtable
define dso_local void @_ZN3net21QuicSentPacketManager28MarkPacketNotRetransmittableEmNS_8QuicTime5DeltaE(ptr noundef nonnull align 8 dereferenceable(776) %this, i64 noundef %packet_number, i64 %ack_delay_time.coerce0, i64 %ack_delay_time.coerce1) #0 align 2 {
entry:
  %ack_delay_time = alloca %"class.net::QuicTime::Delta", align 8
  %this.addr = alloca ptr, align 8
  %packet_number.addr = alloca i64, align 8
  %transmission_info = alloca ptr, align 8
  %newest_transmission = alloca i64, align 8
  %agg.tmp = alloca %"class.net::QuicTime::Delta", align 8
  %agg.tmp10 = alloca %"class.net::QuicTime::Delta", align 8
  %0 = getelementptr inbounds { i64, i64 }, ptr %ack_delay_time, i32 0, i32 0
  store i64 %ack_delay_time.coerce0, ptr %0, align 8
  %1 = getelementptr inbounds { i64, i64 }, ptr %ack_delay_time, i32 0, i32 1
  store i64 %ack_delay_time.coerce1, ptr %1, align 8
  store ptr %this, ptr %this.addr, align 8
  store i64 %packet_number, ptr %packet_number.addr, align 8
  %this1 = load ptr, ptr %this.addr, align 8
  %unacked_packets_ = getelementptr inbounds %"class.net::QuicSentPacketManager", ptr %this1, i32 0, i32 1
  %2 = load i64, ptr %packet_number.addr, align 8
  %call = call noundef zeroext i1 @_ZNK3net20QuicUnackedPacketMap9IsUnackedEm(ptr noundef nonnull align 8 dereferenceable(120) %unacked_packets_, i64 noundef %2)
  br i1 %call, label %if.end, label %if.then

if.then:                                          ; preds = %entry
  br label %return

if.end:                                           ; preds = %entry
  %unacked_packets_2 = getelementptr inbounds %"class.net::QuicSentPacketManager", ptr %this1, i32 0, i32 1
  %3 = load i64, ptr %packet_number.addr, align 8
  %call3 = call noundef nonnull align 8 dereferenceable(80) ptr @_ZNK3net20QuicUnackedPacketMap19GetTransmissionInfoEm(ptr noundef nonnull align 8 dereferenceable(120) %unacked_packets_2, i64 noundef %3)
  store ptr %call3, ptr %transmission_info, align 8
  %4 = load i64, ptr %packet_number.addr, align 8
  %5 = load ptr, ptr %transmission_info, align 8
  %call4 = call noundef i64 @_ZNK3net21QuicSentPacketManager23GetNewestRetransmissionEmRKNS_16TransmissionInfoE(ptr noundef nonnull align 8 dereferenceable(776) %this1, i64 noundef %4, ptr noundef nonnull align 8 dereferenceable(80) %5)
  store i64 %call4, ptr %newest_transmission, align 8
  %delegate_ = getelementptr inbounds %"class.net::QuicSentPacketManager", ptr %this1, i32 0, i32 7
  %6 = load ptr, ptr %delegate_, align 8
  %cmp = icmp ne ptr %6, null
  br i1 %cmp, label %if.then5, label %if.else

if.then5:                                         ; preds = %if.end
  %delegate_6 = getelementptr inbounds %"class.net::QuicSentPacketManager", ptr %this1, i32 0, i32 7
  %7 = load ptr, ptr %delegate_6, align 8
  %path_id_ = getelementptr inbounds %"class.net::QuicSentPacketManager", ptr %this1, i32 0, i32 4
  %8 = load i8, ptr %path_id_, align 4
  %9 = load i64, ptr %newest_transmission, align 8
  call void @llvm.memcpy.p0.p0.i64(ptr align 8 %agg.tmp, ptr align 8 %ack_delay_time, i64 16, i1 false)
  %10 = getelementptr inbounds { i64, i64 }, ptr %agg.tmp, i32 0, i32 0
  %11 = load i64, ptr %10, align 8
  %12 = getelementptr inbounds { i64, i64 }, ptr %agg.tmp, i32 0, i32 1
  %13 = load i64, ptr %12, align 8
  %vtable = load ptr, ptr %7, align 8
  %vfn = getelementptr inbounds ptr, ptr %vtable, i64 4
  %14 = load ptr, ptr %vfn, align 8
  call void %14(ptr noundef nonnull align 8 dereferenceable(8) %7, i8 noundef zeroext %8, i64 noundef %9, i64 %11, i64 %13)
  br label %if.end8

if.else:                                          ; preds = %if.end
  %pending_retransmissions_ = getelementptr inbounds %"class.net::QuicSentPacketManager", ptr %this1, i32 0, i32 2
  %call7 = call noundef i64 @_ZN15linked_hash_mapImN3net16TransmissionTypeESt4hashImEE5eraseERKm(ptr noundef nonnull align 8 dereferenceable(80) %pending_retransmissions_, ptr noundef nonnull align 8 dereferenceable(8) %newest_transmission)
  br label %if.end8

if.end8:                                          ; preds = %if.else, %if.then5
  %unacked_packets_9 = getelementptr inbounds %"class.net::QuicSentPacketManager", ptr %this1, i32 0, i32 1
  %15 = load i64, ptr %newest_transmission, align 8
  call void @llvm.memcpy.p0.p0.i64(ptr align 8 %agg.tmp10, ptr align 8 %ack_delay_time, i64 16, i1 false)
  %16 = getelementptr inbounds { i64, i64 }, ptr %agg.tmp10, i32 0, i32 0
  %17 = load i64, ptr %16, align 8
  %18 = getelementptr inbounds { i64, i64 }, ptr %agg.tmp10, i32 0, i32 1
  %19 = load i64, ptr %18, align 8
  call void @_ZN3net20QuicUnackedPacketMap23NotifyAndClearListenersEmNS_8QuicTime5DeltaE(ptr noundef nonnull align 8 dereferenceable(120) %unacked_packets_9, i64 noundef %15, i64 %17, i64 %19)
  %unacked_packets_11 = getelementptr inbounds %"class.net::QuicSentPacketManager", ptr %this1, i32 0, i32 1
  %20 = load i64, ptr %packet_number.addr, align 8
  call void @_ZN3net20QuicUnackedPacketMap24RemoveRetransmittabilityEm(ptr noundef nonnull align 8 dereferenceable(120) %unacked_packets_11, i64 noundef %20)
  br label %return

return:                                           ; preds = %if.end8, %if.then
  ret void
}