; Function Attrs: mustprogress uwtable
define dso_local void @_ZN3net21QuicSentPacketManager28MarkPacketNotRetransmittableEmNS_8QuicTime5DeltaE(ptr noundef nonnull align 8 dereferenceable(776) %this, i64 noundef %packet_number, i64 %ack_delay_time.coerce0, i64 %ack_delay_time.coerce1) local_unnamed_addr #0 align 2 {
entry:
  %newest_transmission = alloca i64, align 8
  %unacked_packets_ = getelementptr inbounds i8, ptr %this, i64 8
  %call = tail call noundef zeroext i1 @_ZNK3net20QuicUnackedPacketMap9IsUnackedEm(ptr noundef nonnull align 8 dereferenceable(120) %unacked_packets_, i64 noundef %packet_number)
  br i1 %call, label %if.end, label %return

if.end:                                           ; preds = %entry
  %call3 = tail call noundef nonnull align 8 dereferenceable(80) ptr @_ZNK3net20QuicUnackedPacketMap19GetTransmissionInfoEm(ptr noundef nonnull align 8 dereferenceable(120) %unacked_packets_, i64 noundef %packet_number)
  %retransmission.0.in3.i = getelementptr inbounds i8, ptr %call3, i64 48
  %retransmission.04.i = load i64, ptr %retransmission.0.in3.i, align 8
  %cmp.not5.i = icmp eq i64 %retransmission.04.i, 0
  br i1 %cmp.not5.i, label %_ZNK3net21QuicSentPacketManager23GetNewestRetransmissionEmRKNS_16TransmissionInfoE.exit, label %while.body.i

while.body.i:                                     ; preds = %if.end, %while.body.i
  %retransmission.06.i = phi i64 [ %retransmission.0.i, %while.body.i ], [ %retransmission.04.i, %if.end ]
  %call.i = tail call noundef nonnull align 8 dereferenceable(80) ptr @_ZNK3net20QuicUnackedPacketMap19GetTransmissionInfoEm(ptr noundef nonnull align 8 dereferenceable(120) %unacked_packets_, i64 noundef %retransmission.06.i)
  %retransmission.0.in.i = getelementptr inbounds i8, ptr %call.i, i64 48
  %retransmission.0.i = load i64, ptr %retransmission.0.in.i, align 8
  %cmp.not.i = icmp eq i64 %retransmission.0.i, 0
  br i1 %cmp.not.i, label %_ZNK3net21QuicSentPacketManager23GetNewestRetransmissionEmRKNS_16TransmissionInfoE.exit, label %while.body.i, !llvm.loop !29

_ZNK3net21QuicSentPacketManager23GetNewestRetransmissionEmRKNS_16TransmissionInfoE.exit: ; preds = %while.body.i, %if.end
  %packet_number.addr.0.lcssa.i = phi i64 [ %packet_number, %if.end ], [ %retransmission.06.i, %while.body.i ]
  store i64 %packet_number.addr.0.lcssa.i, ptr %newest_transmission, align 8
  %delegate_ = getelementptr inbounds i8, ptr %this, i64 232
  %0 = load ptr, ptr %delegate_, align 8
  %cmp.not = icmp eq ptr %0, null
  br i1 %cmp.not, label %if.else, label %if.then5

if.then5:                                         ; preds = %_ZNK3net21QuicSentPacketManager23GetNewestRetransmissionEmRKNS_16TransmissionInfoE.exit
  %path_id_ = getelementptr inbounds i8, ptr %this, i64 212
  %1 = load i8, ptr %path_id_, align 4
  %vtable = load ptr, ptr %0, align 8
  %vfn = getelementptr inbounds i8, ptr %vtable, i64 32
  %2 = load ptr, ptr %vfn, align 8
  tail call void %2(ptr noundef nonnull align 8 dereferenceable(8) %0, i8 noundef zeroext %1, i64 noundef %packet_number.addr.0.lcssa.i, i64 %ack_delay_time.coerce0, i64 %ack_delay_time.coerce1)
  br label %if.end8

if.else:                                          ; preds = %_ZNK3net21QuicSentPacketManager23GetNewestRetransmissionEmRKNS_16TransmissionInfoE.exit
  %pending_retransmissions_ = getelementptr inbounds i8, ptr %this, i64 128
  %call7 = call noundef i64 @_ZN15linked_hash_mapImN3net16TransmissionTypeESt4hashImEE5eraseERKm(ptr noundef nonnull align 8 dereferenceable(80) %pending_retransmissions_, ptr noundef nonnull align 8 dereferenceable(8) %newest_transmission)
  %.pre = load i64, ptr %newest_transmission, align 8
  br label %if.end8

if.end8:                                          ; preds = %if.else, %if.then5
  %3 = phi i64 [ %.pre, %if.else ], [ %packet_number.addr.0.lcssa.i, %if.then5 ]
  call void @_ZN3net20QuicUnackedPacketMap23NotifyAndClearListenersEmNS_8QuicTime5DeltaE(ptr noundef nonnull align 8 dereferenceable(120) %unacked_packets_, i64 noundef %3, i64 %ack_delay_time.coerce0, i64 %ack_delay_time.coerce1)
  call void @_ZN3net20QuicUnackedPacketMap24RemoveRetransmittabilityEm(ptr noundef nonnull align 8 dereferenceable(120) %unacked_packets_, i64 noundef %packet_number)
  br label %return

return:                                           ; preds = %entry, %if.end8
  ret void
}